; Function Attrs: nounwind uwtable
define dso_local ptr @lpPrev(ptr noundef %0, ptr noundef %1) local_unnamed_addr #3 {
  %3 = alloca ptr, align 8
  %.not = icmp eq ptr %1, null
  br i1 %.not, label %4, label %5, !prof !12

4:                                                ; preds = %2
  tail call void @_serverAssert(ptr noundef nonnull @.str, ptr noundef nonnull @.str.1, i32 noundef 505) #20
  tail call void @abort() #21
  unreachable

5:                                                ; preds = %2
  %6 = ptrtoint ptr %1 to i64
  %7 = ptrtoint ptr %0 to i64
  %8 = sub i64 %6, %7
  %9 = icmp eq i64 %8, 6
  br i1 %9, label %30, label %.preheader

.preheader:                                       ; preds = %5, %15
  %.pn = phi ptr [ %.09.i, %15 ], [ %1, %5 ]
  %.08.i = phi i64 [ %14, %15 ], [ 0, %5 ]
  %.0.i = phi i64 [ %16, %15 ], [ 0, %5 ]
  %.09.i = getelementptr inbounds i8, ptr %.pn, i64 -1
  %10 = load i8, ptr %.09.i, align 1, !tbaa !5
  %11 = and i8 %10, 127
  %12 = zext nneg i8 %11 to i64
  %13 = shl nuw nsw i64 %12, %.0.i
  %.fr28 = freeze i64 %13
  %14 = or i64 %.fr28, %.08.i
  %.not.i = icmp sgt i8 %10, -1
  br i1 %.not.i, label %lpDecodeBacklen.exit, label %15

15:                                               ; preds = %.preheader
  %16 = add nuw nsw i64 %.0.i, 7
  %17 = icmp samesign ugt i64 %.0.i, 21
  br i1 %17, label %lpEncodeBacklenBytes.exit, label %.preheader

lpDecodeBacklen.exit:                             ; preds = %.preheader
  %18 = icmp ult i64 %14, 128
  br i1 %18, label %lpEncodeBacklenBytes.exit, label %19

19:                                               ; preds = %lpDecodeBacklen.exit
  %20 = icmp ult i64 %14, 16383
  br i1 %20, label %lpEncodeBacklenBytes.exit, label %21

21:                                               ; preds = %19
  %22 = icmp ult i64 %14, 2097151
  br i1 %22, label %lpEncodeBacklenBytes.exit, label %23

23:                                               ; preds = %21
  %24 = icmp ult i64 %14, 268435455
  %spec.select.neg = select i1 %24, i64 -4, i64 -5
  br label %lpEncodeBacklenBytes.exit

lpEncodeBacklenBytes.exit:                        ; preds = %15, %23, %lpDecodeBacklen.exit, %19, %21
  %.010.i18 = phi i64 [ %14, %lpDecodeBacklen.exit ], [ %14, %19 ], [ %14, %21 ], [ %14, %23 ], [ -1, %15 ]
  %.0.i14.neg30 = phi i64 [ -1, %lpDecodeBacklen.exit ], [ -2, %19 ], [ -3, %21 ], [ %spec.select.neg, %23 ], [ -5, %15 ]
  %reass.sub = sub i64 %.0.i14.neg30, %.010.i18
  %25 = getelementptr i8, ptr %1, i64 %reass.sub
  %26 = load i32, ptr %0, align 1
  %27 = zext i32 %26 to i64
  call void @llvm.lifetime.start.p0(i64 8, ptr nonnull %3)
  store ptr %25, ptr %3, align 8, !tbaa !13
  %28 = call i32 @lpValidateNext(ptr noundef nonnull %0, ptr noundef nonnull %3, i64 noundef %27)
  %.not.i15 = icmp eq i32 %28, 0
  br i1 %.not.i15, label %29, label %lpAssertValidEntry.exit, !prof !12

29:                                               ; preds = %lpEncodeBacklenBytes.exit
  tail call void @_serverAssert(ptr noundef nonnull @.str.30, ptr noundef nonnull @.str.1, i32 noundef 1664) #20
  tail call void @abort() #21
  unreachable

lpAssertValidEntry.exit:                          ; preds = %lpEncodeBacklenBytes.exit
  call void @llvm.lifetime.end.p0(i64 8, ptr nonnull %3)
  br label %30

30:                                               ; preds = %5, %lpAssertValidEntry.exit
  %.0 = phi ptr [ %25, %lpAssertValidEntry.exit ], [ null, %5 ]
  ret ptr %.0
}